target datalayout = "e-m:e-p270:32:32-p271:32:32-p272:64:64-i64:64-i128:128-f80:128-n8:16:32:64-S128"
target triple = "x86_64-pc-linux-gnu"

%struct.quic_txpim_st = type { %struct.quic_txpim_pkt_ex_list, i64 }
%struct.quic_txpim_pkt_ex_list = type { ptr, ptr }
%struct.quic_txpim_pkt_ex_st = type { %struct.quic_txpim_pkt_st, ptr, ptr, ptr, i64, i64, i8 }
%struct.quic_txpim_pkt_st = type { %struct.ossl_ackm_tx_pkt_st, ptr, ptr, i8, i8 }
%struct.ossl_ackm_tx_pkt_st = type { i64, i64, %struct.OSSL_TIME, i64, i8, ptr, ptr, ptr, ptr, %struct.anon, ptr, ptr }
%struct.OSSL_TIME = type { i64 }
%struct.anon = type { ptr, ptr }

@.str = private unnamed_addr constant [33 x i8] c"../openssl/ssl/quic/quic_txpim.c\00", align 1

; Function Attrs: nounwind uwtable
define internal void @free_list(ptr noundef %0) #0 {
  %2 = alloca ptr, align 8
  %3 = alloca ptr, align 8
  %4 = alloca ptr, align 8
  store ptr %0, ptr %2, align 8, !tbaa !8
  call void @llvm.lifetime.start.p0(i64 8, ptr %3) #5
  call void @llvm.lifetime.start.p0(i64 8, ptr %4) #5
  %5 = load ptr, ptr %2, align 8, !tbaa !8
  %6 = getelementptr inbounds nuw %struct.quic_txpim_pkt_ex_list, ptr %5, i32 0, i32 0
  %7 = load ptr, ptr %6, align 8, !tbaa !10
  store ptr %7, ptr %3, align 8, !tbaa !13
  br label %8

8:                                                ; preds = %19, %1
  %9 = load ptr, ptr %3, align 8, !tbaa !13
  %10 = icmp ne ptr %9, null
  br i1 %10, label %11, label %21

11:                                               ; preds = %8
  %12 = load ptr, ptr %3, align 8, !tbaa !13
  %13 = getelementptr inbounds nuw %struct.quic_txpim_pkt_ex_st, ptr %12, i32 0, i32 2
  %14 = load ptr, ptr %13, align 8, !tbaa !14
  store ptr %14, ptr %4, align 8, !tbaa !13
  %15 = load ptr, ptr %3, align 8, !tbaa !13
  %16 = getelementptr inbounds nuw %struct.quic_txpim_pkt_ex_st, ptr %15, i32 0, i32 3
  %17 = load ptr, ptr %16, align 8, !tbaa !26
  call void @CRYPTO_free(ptr noundef %17, ptr noundef @.str, i32 noundef 51)
  %18 = load ptr, ptr %3, align 8, !tbaa !13
  call void @CRYPTO_free(ptr noundef %18, ptr noundef @.str, i32 noundef 52)
  br label %19

19:                                               ; preds = %11
  %20 = load ptr, ptr %4, align 8, !tbaa !13
  store ptr %20, ptr %3, align 8, !tbaa !13
  br label %8, !llvm.loop !27

21:                                               ; preds = %8
  %22 = load ptr, ptr %2, align 8, !tbaa !8
  %23 = getelementptr inbounds nuw %struct.quic_txpim_pkt_ex_list, ptr %22, i32 0, i32 1
  store ptr null, ptr %23, align 8, !tbaa !29
  %24 = load ptr, ptr %2, align 8, !tbaa !8
  %25 = getelementptr inbounds nuw %struct.quic_txpim_pkt_ex_list, ptr %24, i32 0, i32 0
  store ptr null, ptr %25, align 8, !tbaa !10
  call void @llvm.lifetime.end.p0(i64 8, ptr %4) #5
  call void @llvm.lifetime.end.p0(i64 8, ptr %3) #5
  ret void
}

; Function Attrs: nounwind uwtable
define void @ossl_quic_txpim_free(ptr noundef %0) #0 {
  %2 = alloca ptr, align 8
  store ptr %0, ptr %2, align 8, !tbaa !3
  %3 = load ptr, ptr %2, align 8, !tbaa !3
  %4 = icmp eq ptr %3, null
  br i1 %4, label %5, label %6

5:                                                ; preds = %1
  br label %10

6:                                                ; preds = %1
  %7 = load ptr, ptr %2, align 8, !tbaa !3
  %8 = getelementptr inbounds nuw %struct.quic_txpim_st, ptr %7, i32 0, i32 0
  call void @free_list(ptr noundef %8)
  %9 = load ptr, ptr %2, align 8, !tbaa !3
  call void @CRYPTO_free(ptr noundef %9, ptr noundef @.str, i32 noundef 65)
  br label %10

10:                                               ; preds = %6, %5
  ret void
}