; Function Attrs: nounwind uwtable
define void @ossl_quic_txpim_free(ptr noundef %0) local_unnamed_addr #0 {
  %2 = icmp eq ptr %0, null
  br i1 %2, label %9, label %3

3:                                                ; preds = %1
  %4 = load ptr, ptr %0, align 8, !tbaa !3
  %.not8.i = icmp eq ptr %4, null
  br i1 %.not8.i, label %free_list.exit, label %.lr.ph.i

.lr.ph.i:                                         ; preds = %3, %.lr.ph.i
  %.09.i = phi ptr [ %6, %.lr.ph.i ], [ %4, %3 ]
  %5 = getelementptr inbounds nuw i8, ptr %.09.i, i64 136
  %6 = load ptr, ptr %5, align 8, !tbaa !9
  %7 = getelementptr inbounds nuw i8, ptr %.09.i, i64 144
  %8 = load ptr, ptr %7, align 8, !tbaa !21
  tail call void @CRYPTO_free(ptr noundef %8, ptr noundef nonnull @.str, i32 noundef 51) #11
  tail call void @CRYPTO_free(ptr noundef nonnull %.09.i, ptr noundef nonnull @.str, i32 noundef 52) #11
  %.not.i = icmp eq ptr %6, null
  br i1 %.not.i, label %free_list.exit, label %.lr.ph.i, !llvm.loop !22

free_list.exit:                                   ; preds = %.lr.ph.i, %3
  tail call void @llvm.memset.p0.i64(ptr noundef nonnull align 8 dereferenceable(16) %0, i8 0, i64 16, i1 false)
  tail call void @CRYPTO_free(ptr noundef nonnull %0, ptr noundef nonnull @.str, i32 noundef 65) #11
  br label %9

9:                                                ; preds = %1, %free_list.exit
  ret void
}